target datalayout = "e-m:e-p270:32:32-p271:32:32-p272:64:64-i64:64-i128:128-f80:128-n8:16:32:64-S128"
target triple = "x86_64-pc-linux-gnu"

%struct.SHA256_CTX = type { [64 x i8], i32, i64, [8 x i32] }

; Function Attrs: nounwind uwtable
define dso_local void @sha256_transform(ptr noundef %0, ptr noundef %1) #0 {
  %3 = alloca ptr, align 8
  %4 = alloca ptr, align 8
  %5 = alloca i32, align 4
  %6 = alloca i32, align 4
  %7 = alloca i32, align 4
  %8 = alloca i32, align 4
  %9 = alloca i32, align 4
  %10 = alloca i32, align 4
  %11 = alloca i32, align 4
  %12 = alloca i32, align 4
  %13 = alloca i32, align 4
  %14 = alloca i32, align 4
  %15 = alloca i32, align 4
  %16 = alloca i32, align 4
  %17 = alloca [64 x i32], align 16
  store ptr %0, ptr %3, align 8, !tbaa !5
  store ptr %1, ptr %4, align 8, !tbaa !9
  call void @llvm.lifetime.start.p0(i64 4, ptr %5) #3
  call void @llvm.lifetime.start.p0(i64 4, ptr %6) #3
  call void @llvm.lifetime.start.p0(i64 4, ptr %7) #3
  call void @llvm.lifetime.start.p0(i64 4, ptr %8) #3
  call void @llvm.lifetime.start.p0(i64 4, ptr %9) #3
  call void @llvm.lifetime.start.p0(i64 4, ptr %10) #3
  call void @llvm.lifetime.start.p0(i64 4, ptr %11) #3
  call void @llvm.lifetime.start.p0(i64 4, ptr %12) #3
  call void @llvm.lifetime.start.p0(i64 4, ptr %13) #3
  call void @llvm.lifetime.start.p0(i64 4, ptr %14) #3
  call void @llvm.lifetime.start.p0(i64 4, ptr %15) #3
  call void @llvm.lifetime.start.p0(i64 4, ptr %16) #3
  call void @llvm.lifetime.start.p0(i64 256, ptr %17) #3
  store i32 0, ptr %13, align 4, !tbaa !11
  store i32 0, ptr %14, align 4, !tbaa !11
  br label %18

18:                                               ; preds = %59, %2
  %19 = load i32, ptr %13, align 4, !tbaa !11
  %20 = icmp ult i32 %19, 16
  br i1 %20, label %21, label %64

21:                                               ; preds = %18
  %22 = load ptr, ptr %4, align 8, !tbaa !9
  %23 = load i32, ptr %14, align 4, !tbaa !11
  %24 = add i32 %23, 0
  %25 = zext i32 %24 to i64
  %26 = getelementptr inbounds nuw i8, ptr %22, i64 %25
  %27 = load i8, ptr %26, align 1, !tbaa !13
  %28 = zext i8 %27 to i32
  %29 = shl i32 %28, 24
  %30 = load ptr, ptr %4, align 8, !tbaa !9
  %31 = load i32, ptr %14, align 4, !tbaa !11
  %32 = add i32 %31, 1
  %33 = zext i32 %32 to i64
  %34 = getelementptr inbounds nuw i8, ptr %30, i64 %33
  %35 = load i8, ptr %34, align 1, !tbaa !13
  %36 = zext i8 %35 to i32
  %37 = shl i32 %36, 16
  %38 = or i32 %29, %37
  %39 = load ptr, ptr %4, align 8, !tbaa !9
  %40 = load i32, ptr %14, align 4, !tbaa !11
  %41 = add i32 %40, 2
  %42 = zext i32 %41 to i64
  %43 = getelementptr inbounds nuw i8, ptr %39, i64 %42
  %44 = load i8, ptr %43, align 1, !tbaa !13
  %45 = zext i8 %44 to i32
  %46 = shl i32 %45, 8
  %47 = or i32 %38, %46
  %48 = load ptr, ptr %4, align 8, !tbaa !9
  %49 = load i32, ptr %14, align 4, !tbaa !11
  %50 = add i32 %49, 3
  %51 = zext i32 %50 to i64
  %52 = getelementptr inbounds nuw i8, ptr %48, i64 %51
  %53 = load i8, ptr %52, align 1, !tbaa !13
  %54 = zext i8 %53 to i32
  %55 = or i32 %47, %54
  %56 = load i32, ptr %13, align 4, !tbaa !11
  %57 = zext i32 %56 to i64
  %58 = getelementptr inbounds nuw [64 x i32], ptr %17, i64 0, i64 %57
  store i32 %55, ptr %58, align 4, !tbaa !11
  br label %59

59:                                               ; preds = %21
  %60 = load i32, ptr %13, align 4, !tbaa !11
  %61 = add i32 %60, 1
  store i32 %61, ptr %13, align 4, !tbaa !11
  %62 = load i32, ptr %14, align 4, !tbaa !11
  %63 = add i32 %62, 4
  store i32 %63, ptr %14, align 4, !tbaa !11
  br label %18, !llvm.loop !14

64:                                               ; preds = %18
  br label %65

65:                                               ; preds = %153, %64
  %66 = load i32, ptr %13, align 4, !tbaa !11
  %67 = icmp ult i32 %66, 64
  br i1 %67, label %68, label %156

68:                                               ; preds = %65
  %69 = load i32, ptr %13, align 4, !tbaa !11
  %70 = sub i32 %69, 2
  %71 = zext i32 %70 to i64
  %72 = getelementptr inbounds nuw [64 x i32], ptr %17, i64 0, i64 %71
  %73 = load i32, ptr %72, align 4, !tbaa !11
  %74 = lshr i32 %73, 17
  %75 = load i32, ptr %13, align 4, !tbaa !11
  %76 = sub i32 %75, 2
  %77 = zext i32 %76 to i64
  %78 = getelementptr inbounds nuw [64 x i32], ptr %17, i64 0, i64 %77
  %79 = load i32, ptr %78, align 4, !tbaa !11
  %80 = shl i32 %79, 15
  %81 = or i32 %74, %80
  %82 = load i32, ptr %13, align 4, !tbaa !11
  %83 = sub i32 %82, 2
  %84 = zext i32 %83 to i64
  %85 = getelementptr inbounds nuw [64 x i32], ptr %17, i64 0, i64 %84
  %86 = load i32, ptr %85, align 4, !tbaa !11
  %87 = lshr i32 %86, 19
  %88 = load i32, ptr %13, align 4, !tbaa !11
  %89 = sub i32 %88, 2
  %90 = zext i32 %89 to i64
  %91 = getelementptr inbounds nuw [64 x i32], ptr %17, i64 0, i64 %90
  %92 = load i32, ptr %91, align 4, !tbaa !11
  %93 = shl i32 %92, 13
  %94 = or i32 %87, %93
  %95 = xor i32 %81, %94
  %96 = load i32, ptr %13, align 4, !tbaa !11
  %97 = sub i32 %96, 2
  %98 = zext i32 %97 to i64
  %99 = getelementptr inbounds nuw [64 x i32], ptr %17, i64 0, i64 %98
  %100 = load i32, ptr %99, align 4, !tbaa !11
  %101 = lshr i32 %100, 10
  %102 = xor i32 %95, %101
  %103 = load i32, ptr %13, align 4, !tbaa !11
  %104 = sub i32 %103, 7
  %105 = zext i32 %104 to i64
  %106 = getelementptr inbounds nuw [64 x i32], ptr %17, i64 0, i64 %105
  %107 = load i32, ptr %106, align 4, !tbaa !11
  %108 = add i32 %102, %107
  %109 = load i32, ptr %13, align 4, !tbaa !11
  %110 = sub i32 %109, 15
  %111 = zext i32 %110 to i64
  %112 = getelementptr inbounds nuw [64 x i32], ptr %17, i64 0, i64 %111
  %113 = load i32, ptr %112, align 4, !tbaa !11
  %114 = lshr i32 %113, 7
  %115 = load i32, ptr %13, align 4, !tbaa !11
  %116 = sub i32 %115, 15
  %117 = zext i32 %116 to i64
  %118 = getelementptr inbounds nuw [64 x i32], ptr %17, i64 0, i64 %117
  %119 = load i32, ptr %118, align 4, !tbaa !11
  %120 = shl i32 %119, 25
  %121 = or i32 %114, %120
  %122 = load i32, ptr %13, align 4, !tbaa !11
  %123 = sub i32 %122, 15
  %124 = zext i32 %123 to i64
  %125 = getelementptr inbounds nuw [64 x i32], ptr %17, i64 0, i64 %124
  %126 = load i32, ptr %125, align 4, !tbaa !11
  %127 = lshr i32 %126, 18
  %128 = load i32, ptr %13, align 4, !tbaa !11
  %129 = sub i32 %128, 15
  %130 = zext i32 %129 to i64
  %131 = getelementptr inbounds nuw [64 x i32], ptr %17, i64 0, i64 %130
  %132 = load i32, ptr %131, align 4, !tbaa !11
  %133 = shl i32 %132, 14
  %134 = or i32 %127, %133
  %135 = xor i32 %121, %134
  %136 = load i32, ptr %13, align 4, !tbaa !11
  %137 = sub i32 %136, 15
  %138 = zext i32 %137 to i64
  %139 = getelementptr inbounds nuw [64 x i32], ptr %17, i64 0, i64 %138
  %140 = load i32, ptr %139, align 4, !tbaa !11
  %141 = lshr i32 %140, 3
  %142 = xor i32 %135, %141
  %143 = add i32 %108, %142
  %144 = load i32, ptr %13, align 4, !tbaa !11
  %145 = sub i32 %144, 16
  %146 = zext i32 %145 to i64
  %147 = getelementptr inbounds nuw [64 x i32], ptr %17, i64 0, i64 %146
  %148 = load i32, ptr %147, align 4, !tbaa !11
  %149 = add i32 %143, %148
  %150 = load i32, ptr %13, align 4, !tbaa !11
  %151 = zext i32 %150 to i64
  %152 = getelementptr inbounds nuw [64 x i32], ptr %17, i64 0, i64 %151
  store i32 %149, ptr %152, align 4, !tbaa !11
  br label %153

153:                                              ; preds = %68
  %154 = load i32, ptr %13, align 4, !tbaa !11
  %155 = add i32 %154, 1
  store i32 %155, ptr %13, align 4, !tbaa !11
  br label %65, !llvm.loop !16

156:                                              ; preds = %65
  %157 = load ptr, ptr %3, align 8, !tbaa !5
  %158 = getelementptr inbounds nuw %struct.SHA256_CTX, ptr %157, i32 0, i32 3
  %159 = getelementptr inbounds [8 x i32], ptr %158, i64 0, i64 0
  %160 = load i32, ptr %159, align 8, !tbaa !11
  store i32 %160, ptr %5, align 4, !tbaa !11
  %161 = load ptr, ptr %3, align 8, !tbaa !5
  %162 = getelementptr inbounds nuw %struct.SHA256_CTX, ptr %161, i32 0, i32 3
  %163 = getelementptr inbounds [8 x i32], ptr %162, i64 0, i64 1
  %164 = load i32, ptr %163, align 4, !tbaa !11
  store i32 %164, ptr %6, align 4, !tbaa !11
  %165 = load ptr, ptr %3, align 8, !tbaa !5
  %166 = getelementptr inbounds nuw %struct.SHA256_CTX, ptr %165, i32 0, i32 3
  %167 = getelementptr inbounds [8 x i32], ptr %166, i64 0, i64 2
  %168 = load i32, ptr %167, align 8, !tbaa !11
  store i32 %168, ptr %7, align 4, !tbaa !11
  %169 = load ptr, ptr %3, align 8, !tbaa !5
  %170 = getelementptr inbounds nuw %struct.SHA256_CTX, ptr %169, i32 0, i32 3
  %171 = getelementptr inbounds [8 x i32], ptr %170, i64 0, i64 3
  %172 = load i32, ptr %171, align 4, !tbaa !11
  store i32 %172, ptr %8, align 4, !tbaa !11
  %173 = load ptr, ptr %3, align 8, !tbaa !5
  %174 = getelementptr inbounds nuw %struct.SHA256_CTX, ptr %173, i32 0, i32 3
  %175 = getelementptr inbounds [8 x i32], ptr %174, i64 0, i64 4
  %176 = load i32, ptr %175, align 8, !tbaa !11
  store i32 %176, ptr %9, align 4, !tbaa !11
  %177 = load ptr, ptr %3, align 8, !tbaa !5
  %178 = getelementptr inbounds nuw %struct.SHA256_CTX, ptr %177, i32 0, i32 3
  %179 = getelementptr inbounds [8 x i32], ptr %178, i64 0, i64 5
  %180 = load i32, ptr %179, align 4, !tbaa !11
  store i32 %180, ptr %10, align 4, !tbaa !11
  %181 = load ptr, ptr %3, align 8, !tbaa !5
  %182 = getelementptr inbounds nuw %struct.SHA256_CTX, ptr %181, i32 0, i32 3
  %183 = getelementptr inbounds [8 x i32], ptr %182, i64 0, i64 6
  %184 = load i32, ptr %183, align 8, !tbaa !11
  store i32 %184, ptr %11, align 4, !tbaa !11
  %185 = load ptr, ptr %3, align 8, !tbaa !5
  %186 = getelementptr inbounds nuw %struct.SHA256_CTX, ptr %185, i32 0, i32 3
  %187 = getelementptr inbounds [8 x i32], ptr %186, i64 0, i64 7
  %188 = load i32, ptr %187, align 4, !tbaa !11
  store i32 %188, ptr %12, align 4, !tbaa !11
  store i32 0, ptr %13, align 4, !tbaa !11
  br label %189

189:                                              ; preds = %272, %156
  %190 = load i32, ptr %13, align 4, !tbaa !11
  %191 = icmp ult i32 %190, 64
  br i1 %191, label %192, label %275

192:                                              ; preds = %189
  %193 = load i32, ptr %12, align 4, !tbaa !11
  %194 = load i32, ptr %9, align 4, !tbaa !11
  %195 = lshr i32 %194, 6
  %196 = load i32, ptr %9, align 4, !tbaa !11
  %197 = shl i32 %196, 26
  %198 = or i32 %195, %197
  %199 = load i32, ptr %9, align 4, !tbaa !11
  %200 = lshr i32 %199, 11
  %201 = load i32, ptr %9, align 4, !tbaa !11
  %202 = shl i32 %201, 21
  %203 = or i32 %200, %202
  %204 = xor i32 %198, %203
  %205 = load i32, ptr %9, align 4, !tbaa !11
  %206 = lshr i32 %205, 25
  %207 = load i32, ptr %9, align 4, !tbaa !11
  %208 = shl i32 %207, 7
  %209 = or i32 %206, %208
  %210 = xor i32 %204, %209
  %211 = add i32 %193, %210
  %212 = load i32, ptr %9, align 4, !tbaa !11
  %213 = load i32, ptr %10, align 4, !tbaa !11
  %214 = and i32 %212, %213
  %215 = load i32, ptr %9, align 4, !tbaa !11
  %216 = xor i32 %215, -1
  %217 = load i32, ptr %11, align 4, !tbaa !11
  %218 = and i32 %216, %217
  %219 = xor i32 %214, %218
  %220 = add i32 %211, %219
  %221 = load i32, ptr %13, align 4, !tbaa !11
  %222 = zext i32 %221 to i64
  %223 = getelementptr inbounds nuw [64 x i32], ptr @k, i64 0, i64 %222
  %224 = load i32, ptr %223, align 4, !tbaa !11
  %225 = add i32 %220, %224
  %226 = load i32, ptr %13, align 4, !tbaa !11
  %227 = zext i32 %226 to i64
  %228 = getelementptr inbounds nuw [64 x i32], ptr %17, i64 0, i64 %227
  %229 = load i32, ptr %228, align 4, !tbaa !11
  %230 = add i32 %225, %229
  store i32 %230, ptr %15, align 4, !tbaa !11
  %231 = load i32, ptr %5, align 4, !tbaa !11
  %232 = lshr i32 %231, 2
  %233 = load i32, ptr %5, align 4, !tbaa !11
  %234 = shl i32 %233, 30
  %235 = or i32 %232, %234
  %236 = load i32, ptr %5, align 4, !tbaa !11
  %237 = lshr i32 %236, 13
  %238 = load i32, ptr %5, align 4, !tbaa !11
  %239 = shl i32 %238, 19
  %240 = or i32 %237, %239
  %241 = xor i32 %235, %240
  %242 = load i32, ptr %5, align 4, !tbaa !11
  %243 = lshr i32 %242, 22
  %244 = load i32, ptr %5, align 4, !tbaa !11
  %245 = shl i32 %244, 10
  %246 = or i32 %243, %245
  %247 = xor i32 %241, %246
  %248 = load i32, ptr %5, align 4, !tbaa !11
  %249 = load i32, ptr %6, align 4, !tbaa !11
  %250 = and i32 %248, %249
  %251 = load i32, ptr %5, align 4, !tbaa !11
  %252 = load i32, ptr %7, align 4, !tbaa !11
  %253 = and i32 %251, %252
  %254 = xor i32 %250, %253
  %255 = load i32, ptr %6, align 4, !tbaa !11
  %256 = load i32, ptr %7, align 4, !tbaa !11
  %257 = and i32 %255, %256
  %258 = xor i32 %254, %257
  %259 = add i32 %247, %258
  store i32 %259, ptr %16, align 4, !tbaa !11
  %260 = load i32, ptr %11, align 4, !tbaa !11
  store i32 %260, ptr %12, align 4, !tbaa !11
  %261 = load i32, ptr %10, align 4, !tbaa !11
  store i32 %261, ptr %11, align 4, !tbaa !11
  %262 = load i32, ptr %9, align 4, !tbaa !11
  store i32 %262, ptr %10, align 4, !tbaa !11
  %263 = load i32, ptr %8, align 4, !tbaa !11
  %264 = load i32, ptr %15, align 4, !tbaa !11
  %265 = add i32 %263, %264
  store i32 %265, ptr %9, align 4, !tbaa !11
  %266 = load i32, ptr %7, align 4, !tbaa !11
  store i32 %266, ptr %8, align 4, !tbaa !11
  %267 = load i32, ptr %6, align 4, !tbaa !11
  store i32 %267, ptr %7, align 4, !tbaa !11
  %268 = load i32, ptr %5, align 4, !tbaa !11
  store i32 %268, ptr %6, align 4, !tbaa !11
  %269 = load i32, ptr %15, align 4, !tbaa !11
  %270 = load i32, ptr %16, align 4, !tbaa !11
  %271 = add i32 %269, %270
  store i32 %271, ptr %5, align 4, !tbaa !11
  br label %272

272:                                              ; preds = %192
  %273 = load i32, ptr %13, align 4, !tbaa !11
  %274 = add i32 %273, 1
  store i32 %274, ptr %13, align 4, !tbaa !11
  br label %189, !llvm.loop !17

275:                                              ; preds = %189
  %276 = load i32, ptr %5, align 4, !tbaa !11
  %277 = load ptr, ptr %3, align 8, !tbaa !5
  %278 = getelementptr inbounds nuw %struct.SHA256_CTX, ptr %277, i32 0, i32 3
  %279 = getelementptr inbounds [8 x i32], ptr %278, i64 0, i64 0
  %280 = load i32, ptr %279, align 8, !tbaa !11
  %281 = add i32 %280, %276
  store i32 %281, ptr %279, align 8, !tbaa !11
  %282 = load i32, ptr %6, align 4, !tbaa !11
  %283 = load ptr, ptr %3, align 8, !tbaa !5
  %284 = getelementptr inbounds nuw %struct.SHA256_CTX, ptr %283, i32 0, i32 3
  %285 = getelementptr inbounds [8 x i32], ptr %284, i64 0, i64 1
  %286 = load i32, ptr %285, align 4, !tbaa !11
  %287 = add i32 %286, %282
  store i32 %287, ptr %285, align 4, !tbaa !11
  %288 = load i32, ptr %7, align 4, !tbaa !11
  %289 = load ptr, ptr %3, align 8, !tbaa !5
  %290 = getelementptr inbounds nuw %struct.SHA256_CTX, ptr %289, i32 0, i32 3
  %291 = getelementptr inbounds [8 x i32], ptr %290, i64 0, i64 2
  %292 = load i32, ptr %291, align 8, !tbaa !11
  %293 = add i32 %292, %288
  store i32 %293, ptr %291, align 8, !tbaa !11
  %294 = load i32, ptr %8, align 4, !tbaa !11
  %295 = load ptr, ptr %3, align 8, !tbaa !5
  %296 = getelementptr inbounds nuw %struct.SHA256_CTX, ptr %295, i32 0, i32 3
  %297 = getelementptr inbounds [8 x i32], ptr %296, i64 0, i64 3
  %298 = load i32, ptr %297, align 4, !tbaa !11
  %299 = add i32 %298, %294
  store i32 %299, ptr %297, align 4, !tbaa !11
  %300 = load i32, ptr %9, align 4, !tbaa !11
  %301 = load ptr, ptr %3, align 8, !tbaa !5
  %302 = getelementptr inbounds nuw %struct.SHA256_CTX, ptr %301, i32 0, i32 3
  %303 = getelementptr inbounds [8 x i32], ptr %302, i64 0, i64 4
  %304 = load i32, ptr %303, align 8, !tbaa !11
  %305 = add i32 %304, %300
  store i32 %305, ptr %303, align 8, !tbaa !11
  %306 = load i32, ptr %10, align 4, !tbaa !11
  %307 = load ptr, ptr %3, align 8, !tbaa !5
  %308 = getelementptr inbounds nuw %struct.SHA256_CTX, ptr %307, i32 0, i32 3
  %309 = getelementptr inbounds [8 x i32], ptr %308, i64 0, i64 5
  %310 = load i32, ptr %309, align 4, !tbaa !11
  %311 = add i32 %310, %306
  store i32 %311, ptr %309, align 4, !tbaa !11
  %312 = load i32, ptr %11, align 4, !tbaa !11
  %313 = load ptr, ptr %3, align 8, !tbaa !5
  %314 = getelementptr inbounds nuw %struct.SHA256_CTX, ptr %313, i32 0, i32 3
  %315 = getelementptr inbounds [8 x i32], ptr %314, i64 0, i64 6
  %316 = load i32, ptr %315, align 8, !tbaa !11
  %317 = add i32 %316, %312
  store i32 %317, ptr %315, align 8, !tbaa !11
  %318 = load i32, ptr %12, align 4, !tbaa !11
  %319 = load ptr, ptr %3, align 8, !tbaa !5
  %320 = getelementptr inbounds nuw %struct.SHA256_CTX, ptr %319, i32 0, i32 3
  %321 = getelementptr inbounds [8 x i32], ptr %320, i64 0, i64 7
  %322 = load i32, ptr %321, align 4, !tbaa !11
  %323 = add i32 %322, %318
  store i32 %323, ptr %321, align 4, !tbaa !11
  call void @llvm.lifetime.end.p0(i64 256, ptr %17) #3
  call void @llvm.lifetime.end.p0(i64 4, ptr %16) #3
  call void @llvm.lifetime.end.p0(i64 4, ptr %15) #3
  call void @llvm.lifetime.end.p0(i64 4, ptr %14) #3
  call void @llvm.lifetime.end.p0(i64 4, ptr %13) #3
  call void @llvm.lifetime.end.p0(i64 4, ptr %12) #3
  call void @llvm.lifetime.end.p0(i64 4, ptr %11) #3
  call void @llvm.lifetime.end.p0(i64 4, ptr %10) #3
  call void @llvm.lifetime.end.p0(i64 4, ptr %9) #3
  call void @llvm.lifetime.end.p0(i64 4, ptr %8) #3
  call void @llvm.lifetime.end.p0(i64 4, ptr %7) #3
  call void @llvm.lifetime.end.p0(i64 4, ptr %6) #3
  call void @llvm.lifetime.end.p0(i64 4, ptr %5) #3
  ret void
}