; Function Attrs: nofree norecurse nosync nounwind memory(argmem: readwrite) uwtable
define dso_local void @sha256_transform(ptr noundef captures(none) %0, ptr noundef readonly captures(none) %1) local_unnamed_addr #0 {
  %3 = alloca [64 x i32], align 16
  call void @llvm.lifetime.start.p0(i64 256, ptr nonnull %3) #5
  br label %4

.lr.ph.preheader:                                 ; preds = %4
  %.pre = load i32, ptr %3, align 16, !tbaa !5
  br label %.lr.ph

4:                                                ; preds = %2, %4
  %indvars.iv110 = phi i64 [ 0, %2 ], [ %indvars.iv.next111, %4 ]
  %indvars.iv = phi i64 [ 0, %2 ], [ %indvars.iv.next, %4 ]
  %5 = getelementptr inbounds nuw i8, ptr %1, i64 %indvars.iv
  %6 = load i8, ptr %5, align 1, !tbaa !9
  %7 = zext i8 %6 to i32
  %8 = shl nuw i32 %7, 24
  %9 = or disjoint i64 %indvars.iv, 1
  %10 = getelementptr inbounds nuw i8, ptr %1, i64 %9
  %11 = load i8, ptr %10, align 1, !tbaa !9
  %12 = zext i8 %11 to i32
  %13 = shl nuw nsw i32 %12, 16
  %14 = or disjoint i32 %13, %8
  %15 = or disjoint i64 %indvars.iv, 2
  %16 = getelementptr inbounds nuw i8, ptr %1, i64 %15
  %17 = load i8, ptr %16, align 1, !tbaa !9
  %18 = zext i8 %17 to i32
  %19 = shl nuw nsw i32 %18, 8
  %20 = or disjoint i32 %14, %19
  %21 = or disjoint i64 %indvars.iv, 3
  %22 = getelementptr inbounds nuw i8, ptr %1, i64 %21
  %23 = load i8, ptr %22, align 1, !tbaa !9
  %24 = zext i8 %23 to i32
  %25 = or disjoint i32 %20, %24
  %26 = getelementptr inbounds nuw [64 x i32], ptr %3, i64 0, i64 %indvars.iv110
  store i32 %25, ptr %26, align 4, !tbaa !5
  %indvars.iv.next111 = add nuw nsw i64 %indvars.iv110, 1
  %indvars.iv.next = add nuw nsw i64 %indvars.iv, 4
  %exitcond.not = icmp eq i64 %indvars.iv.next111, 16
  br i1 %exitcond.not, label %.lr.ph.preheader, label %4, !llvm.loop !10

.lr.ph:                                           ; preds = %.lr.ph.preheader, %.lr.ph
  %27 = phi i32 [ %.pre, %.lr.ph.preheader ], [ %42, %.lr.ph ]
  %indvars.iv115 = phi i64 [ 16, %.lr.ph.preheader ], [ %indvars.iv.next116, %.lr.ph ]
  %28 = add nsw i64 %indvars.iv115, -2
  %29 = getelementptr inbounds nuw [64 x i32], ptr %3, i64 0, i64 %28
  %30 = load i32, ptr %29, align 4, !tbaa !5
  %31 = tail call i32 @llvm.fshl.i32(i32 %30, i32 %30, i32 15)
  %32 = tail call i32 @llvm.fshl.i32(i32 %30, i32 %30, i32 13)
  %33 = xor i32 %31, %32
  %34 = lshr i32 %30, 10
  %35 = xor i32 %33, %34
  %36 = add nsw i64 %indvars.iv115, -7
  %37 = getelementptr inbounds nuw [64 x i32], ptr %3, i64 0, i64 %36
  %38 = load i32, ptr %37, align 4, !tbaa !5
  %39 = add i32 %35, %38
  %40 = add nsw i64 %indvars.iv115, -15
  %41 = getelementptr inbounds nuw [64 x i32], ptr %3, i64 0, i64 %40
  %42 = load i32, ptr %41, align 4, !tbaa !5
  %43 = tail call i32 @llvm.fshl.i32(i32 %42, i32 %42, i32 25)
  %44 = tail call i32 @llvm.fshl.i32(i32 %42, i32 %42, i32 14)
  %45 = xor i32 %43, %44
  %46 = lshr i32 %42, 3
  %47 = xor i32 %45, %46
  %48 = add i32 %39, %27
  %49 = add i32 %48, %47
  %50 = getelementptr inbounds nuw [64 x i32], ptr %3, i64 0, i64 %indvars.iv115
  store i32 %49, ptr %50, align 4, !tbaa !5
  %indvars.iv.next116 = add nuw nsw i64 %indvars.iv115, 1
  %exitcond118.not = icmp eq i64 %indvars.iv.next116, 64
  br i1 %exitcond118.not, label %._crit_edge, label %.lr.ph, !llvm.loop !12

._crit_edge:                                      ; preds = %.lr.ph
  %51 = getelementptr inbounds nuw i8, ptr %0, i64 80
  %52 = load i32, ptr %51, align 8, !tbaa !5
  %53 = getelementptr inbounds nuw i8, ptr %0, i64 84
  %54 = load i32, ptr %53, align 4, !tbaa !5
  %55 = getelementptr inbounds nuw i8, ptr %0, i64 88
  %56 = load i32, ptr %55, align 8, !tbaa !5
  %57 = getelementptr inbounds nuw i8, ptr %0, i64 92
  %58 = load i32, ptr %57, align 4, !tbaa !5
  %59 = getelementptr inbounds nuw i8, ptr %0, i64 96
  %60 = load i32, ptr %59, align 8, !tbaa !5
  %61 = getelementptr inbounds nuw i8, ptr %0, i64 100
  %62 = load i32, ptr %61, align 4, !tbaa !5
  %63 = getelementptr inbounds nuw i8, ptr %0, i64 104
  %64 = load i32, ptr %63, align 8, !tbaa !5
  %65 = getelementptr inbounds nuw i8, ptr %0, i64 108
  %66 = load i32, ptr %65, align 4, !tbaa !5
  br label %67

67:                                               ; preds = %._crit_edge, %67
  %indvars.iv119 = phi i64 [ 0, %._crit_edge ], [ %indvars.iv.next120, %67 ]
  %.0107 = phi i32 [ %52, %._crit_edge ], [ %96, %67 ]
  %.087106 = phi i32 [ %54, %._crit_edge ], [ %.0107, %67 ]
  %.090104 = phi i32 [ %66, %._crit_edge ], [ %.091103, %67 ]
  %.091103 = phi i32 [ %64, %._crit_edge ], [ %.092102, %67 ]
  %.092102 = phi i32 [ %62, %._crit_edge ], [ %.093101, %67 ]
  %.093101 = phi i32 [ %60, %._crit_edge ], [ %95, %67 ]
  %.094100 = phi i32 [ %58, %._crit_edge ], [ %.09599, %67 ]
  %.09599 = phi i32 [ %56, %._crit_edge ], [ %.087106, %67 ]
  %68 = tail call i32 @llvm.fshl.i32(i32 %.093101, i32 %.093101, i32 26)
  %69 = tail call i32 @llvm.fshl.i32(i32 %.093101, i32 %.093101, i32 21)
  %70 = xor i32 %68, %69
  %71 = tail call i32 @llvm.fshl.i32(i32 %.093101, i32 %.093101, i32 7)
  %72 = xor i32 %70, %71
  %73 = add i32 %.090104, %72
  %74 = and i32 %.092102, %.093101
  %75 = xor i32 %.093101, -1
  %76 = and i32 %.091103, %75
  %77 = or i32 %76, %74
  %78 = add i32 %73, %77
  %79 = getelementptr inbounds nuw [64 x i32], ptr @k, i64 0, i64 %indvars.iv119
  %80 = load i32, ptr %79, align 4, !tbaa !5
  %81 = add i32 %78, %80
  %82 = getelementptr inbounds nuw [64 x i32], ptr %3, i64 0, i64 %indvars.iv119
  %83 = load i32, ptr %82, align 4, !tbaa !5
  %84 = add i32 %81, %83
  %85 = tail call i32 @llvm.fshl.i32(i32 %.0107, i32 %.0107, i32 30)
  %86 = tail call i32 @llvm.fshl.i32(i32 %.0107, i32 %.0107, i32 19)
  %87 = xor i32 %85, %86
  %88 = tail call i32 @llvm.fshl.i32(i32 %.0107, i32 %.0107, i32 10)
  %89 = xor i32 %87, %88
  %90 = xor i32 %.087106, %.09599
  %91 = and i32 %.0107, %90
  %92 = and i32 %.087106, %.09599
  %93 = xor i32 %91, %92
  %94 = add i32 %89, %93
  %95 = add i32 %84, %.094100
  %96 = add i32 %94, %84
  %indvars.iv.next120 = add nuw nsw i64 %indvars.iv119, 1
  %exitcond122.not = icmp eq i64 %indvars.iv.next120, 64
  br i1 %exitcond122.not, label %97, label %67, !llvm.loop !13

97:                                               ; preds = %67
  %98 = add i32 %96, %52
  store i32 %98, ptr %51, align 8, !tbaa !5
  %99 = add i32 %.0107, %54
  store i32 %99, ptr %53, align 4, !tbaa !5
  %100 = add i32 %.087106, %56
  store i32 %100, ptr %55, align 8, !tbaa !5
  %101 = add i32 %.09599, %58
  store i32 %101, ptr %57, align 4, !tbaa !5
  %102 = add i32 %95, %60
  store i32 %102, ptr %59, align 8, !tbaa !5
  %103 = add i32 %.093101, %62
  store i32 %103, ptr %61, align 4, !tbaa !5
  %104 = add i32 %.092102, %64
  store i32 %104, ptr %63, align 8, !tbaa !5
  %105 = add i32 %.091103, %66
  store i32 %105, ptr %65, align 4, !tbaa !5
  call void @llvm.lifetime.end.p0(i64 256, ptr nonnull %3) #5
  ret void
}